target datalayout = "e-m:e-p270:32:32-p271:32:32-p272:64:64-i64:64-i128:128-f80:128-n8:16:32:64-S128"
target triple = "x86_64-pc-linux-gnu"

%"class.cv::Rect_" = type { i32, i32, i32, i32 }
%"class.cv::FilterEngine" = type { ptr, i32, i32, i32, %"class.cv::Size_", %"class.cv::Point_", i32, %"class.cv::Size_", %"class.cv::Rect_", i32, i32, i32, i32, %"class.std::vector", i32, %"class.std::vector.0", %"class.std::vector.0", %"class.std::vector.0", %"class.std::vector.0", i32, i32, i32, i32, i32, i32, %"class.std::vector.5", %"struct.cv::Ptr", %"struct.cv::Ptr.10", %"struct.cv::Ptr.14" }
%"class.cv::Point_" = type { i32, i32 }
%"class.cv::Size_" = type { i32, i32 }
%"class.std::vector" = type { %"struct.std::_Vector_base" }
%"struct.std::_Vector_base" = type { %"struct.std::_Vector_base<int, std::allocator<int>>::_Vector_impl" }
%"struct.std::_Vector_base<int, std::allocator<int>>::_Vector_impl" = type { %"struct.std::_Vector_base<int, std::allocator<int>>::_Vector_impl_data" }
%"struct.std::_Vector_base<int, std::allocator<int>>::_Vector_impl_data" = type { ptr, ptr, ptr }
%"class.std::vector.0" = type { %"struct.std::_Vector_base.1" }
%"struct.std::_Vector_base.1" = type { %"struct.std::_Vector_base<unsigned char, std::allocator<unsigned char>>::_Vector_impl" }
%"struct.std::_Vector_base<unsigned char, std::allocator<unsigned char>>::_Vector_impl" = type { %"struct.std::_Vector_base<unsigned char, std::allocator<unsigned char>>::_Vector_impl_data" }
%"struct.std::_Vector_base<unsigned char, std::allocator<unsigned char>>::_Vector_impl_data" = type { ptr, ptr, ptr }
%"class.std::vector.5" = type { %"struct.std::_Vector_base.6" }
%"struct.std::_Vector_base.6" = type { %"struct.std::_Vector_base<unsigned char *, std::allocator<unsigned char *>>::_Vector_impl" }
%"struct.std::_Vector_base<unsigned char *, std::allocator<unsigned char *>>::_Vector_impl" = type { %"struct.std::_Vector_base<unsigned char *, std::allocator<unsigned char *>>::_Vector_impl_data" }
%"struct.std::_Vector_base<unsigned char *, std::allocator<unsigned char *>>::_Vector_impl_data" = type { ptr, ptr, ptr }
%"struct.cv::Ptr" = type { %"class.std::shared_ptr" }
%"class.std::shared_ptr" = type { %"class.std::__shared_ptr" }
%"class.std::__shared_ptr" = type { ptr, %"class.std::__shared_count" }
%"class.std::__shared_count" = type { ptr }
%"struct.cv::Ptr.10" = type { %"class.std::shared_ptr.11" }
%"class.std::shared_ptr.11" = type { %"class.std::__shared_ptr.12" }
%"class.std::__shared_ptr.12" = type { ptr, %"class.std::__shared_count" }
%"struct.cv::Ptr.14" = type { %"class.std::shared_ptr.15" }
%"class.std::shared_ptr.15" = type { %"class.std::__shared_ptr.16" }
%"class.std::__shared_ptr.16" = type { ptr, %"class.std::__shared_count" }

; Function Attrs: mustprogress nounwind uwtable
define hidden noundef i32 @_ZNK2cv12FilterEngine18remainingInputRowsEv(ptr noundef nonnull align 8 dereferenceable(304) %0) #6 align 2 {
  %2 = alloca ptr, align 8
  store ptr %0, ptr %2, align 8
  %3 = load ptr, ptr %2, align 8
  %4 = getelementptr inbounds %"class.cv::FilterEngine", ptr %3, i32 0, i32 22
  %5 = load i32, ptr %4, align 4
  %6 = getelementptr inbounds %"class.cv::FilterEngine", ptr %3, i32 0, i32 20
  %7 = load i32, ptr %6, align 4
  %8 = sub nsw i32 %5, %7
  %9 = getelementptr inbounds %"class.cv::FilterEngine", ptr %3, i32 0, i32 23
  %10 = load i32, ptr %9, align 8
  %11 = sub nsw i32 %8, %10
  ret i32 %11
}