; Function Attrs: mustprogress nofree norecurse nosync nounwind willreturn memory(argmem: read) uwtable
define hidden noundef i32 @_ZNK2cv12FilterEngine18remainingInputRowsEv(ptr nocapture noundef nonnull readonly align 8 dereferenceable(304) %0) local_unnamed_addr #7 align 2 {
  %2 = getelementptr inbounds i8, ptr %0, i64 220
  %3 = load i32, ptr %2, align 4
  %4 = getelementptr inbounds i8, ptr %0, i64 212
  %5 = load i32, ptr %4, align 4
  %6 = getelementptr inbounds i8, ptr %0, i64 224
  %7 = load i32, ptr %6, align 8
  %8 = add i32 %5, %7
  %9 = sub i32 %3, %8
  ret i32 %9
}